; ModuleID = 'source-C-CXX/41/1469.cpp'
source_filename = "source-C-CXX/41/1469.cpp"
target datalayout = "e-m:e-p270:32:32-p271:32:32-p272:64:64-i64:64-f80:128-n8:16:32:64-S128"
target triple = "x86_64-pc-linux-gnu"

%"class.std::ios_base::Init" = type { i8 }
%"class.std::basic_istream" = type { i32 (...)**, i64, %"class.std::basic_ios" }
%"class.std::basic_ios" = type { %"class.std::ios_base", %"class.std::basic_ostream"*, i8, i8, %"class.std::basic_streambuf"*, %"class.std::ctype"*, %"class.std::num_put"*, %"class.std::num_get"* }
%"class.std::ios_base" = type { i32 (...)**, i64, i64, i32, i32, i32, %"struct.std::ios_base::_Callback_list"*, %"struct.std::ios_base::_Words", [8 x %"struct.std::ios_base::_Words"], i32, %"struct.std::ios_base::_Words"*, %"class.std::locale" }
%"struct.std::ios_base::_Callback_list" = type { %"struct.std::ios_base::_Callback_list"*, void (i32, %"class.std::ios_base"*, i32)*, i32, i32 }
%"struct.std::ios_base::_Words" = type { i8*, i64 }
%"class.std::locale" = type { %"class.std::locale::_Impl"* }
%"class.std::locale::_Impl" = type { i32, %"class.std::locale::facet"**, i64, %"class.std::locale::facet"**, i8** }
%"class.std::locale::facet" = type <{ i32 (...)**, i32, [4 x i8] }>
%"class.std::basic_ostream" = type { i32 (...)**, %"class.std::basic_ios" }
%"class.std::basic_streambuf" = type { i32 (...)**, i8*, i8*, i8*, i8*, i8*, i8*, %"class.std::locale" }
%"class.std::ctype" = type <{ %"class.std::locale::facet.base", [4 x i8], %struct.__locale_struct*, i8, [7 x i8], i32*, i32*, i16*, i8, [256 x i8], [256 x i8], i8, [6 x i8] }>
%"class.std::locale::facet.base" = type <{ i32 (...)**, i32 }>
%struct.__locale_struct = type { [13 x %struct.__locale_data*], i16*, i32*, i32*, [13 x i8*] }
%struct.__locale_data = type opaque
%"class.std::num_put" = type { %"class.std::locale::facet.base", [4 x i8] }
%"class.std::num_get" = type { %"class.std::locale::facet.base", [4 x i8] }

@_ZStL8__ioinit = internal global %"class.std::ios_base::Init" zeroinitializer, align 1
@__dso_handle = external hidden global i8
@_ZSt3cin = external global %"class.std::basic_istream", align 8
@_ZSt4cout = external global %"class.std::basic_ostream", align 8
@llvm.global_ctors = appending global [1 x { i32, void ()*, i8* }] [{ i32, void ()*, i8* } { i32 65535, void ()* @_GLOBAL__sub_I_1469.cpp, i8* null }]

declare void @_ZNSt8ios_base4InitC1Ev(%"class.std::ios_base::Init"* nonnull align 1 dereferenceable(1)) unnamed_addr #0

; Function Attrs: nounwind
declare void @_ZNSt8ios_base4InitD1Ev(%"class.std::ios_base::Init"* nonnull align 1 dereferenceable(1)) unnamed_addr #1

; Function Attrs: nofree nounwind
declare i32 @__cxa_atexit(void (i8*)*, i8*, i8*) local_unnamed_addr #2

; Function Attrs: mustprogress norecurse sspstrong uwtable
define dso_local i32 @main() local_unnamed_addr #3 {
  %1 = alloca i8, align 1
  %2 = alloca [100000 x i32], align 16
  %3 = alloca i32, align 4
  %4 = alloca i32, align 4
  %5 = bitcast [100000 x i32]* %2 to i8*
  call void @llvm.lifetime.start.p0i8(i64 400000, i8* nonnull %5) #6
  %6 = bitcast i32* %3 to i8*
  call void @llvm.lifetime.start.p0i8(i64 4, i8* nonnull %6) #6
  %7 = bitcast i32* %4 to i8*
  call void @llvm.lifetime.start.p0i8(i64 4, i8* nonnull %7) #6
  %8 = call nonnull align 8 dereferenceable(16) %"class.std::basic_istream"* @_ZNSirsERi(%"class.std::basic_istream"* nonnull align 8 dereferenceable(16) @_ZSt3cin, i32* nonnull align 4 dereferenceable(4) %3)
  %9 = load i32, i32* %3, align 4, !tbaa !5
  %10 = icmp sgt i32 %9, 0
  br i1 %10, label %11, label %19

11:                                               ; preds = %0, %11
  %12 = phi i64 [ %15, %11 ], [ 0, %0 ]
  %13 = getelementptr inbounds [100000 x i32], [100000 x i32]* %2, i64 0, i64 %12
  %14 = call nonnull align 8 dereferenceable(16) %"class.std::basic_istream"* @_ZNSirsERi(%"class.std::basic_istream"* nonnull align 8 dereferenceable(16) @_ZSt3cin, i32* nonnull align 4 dereferenceable(4) %13)
  %15 = add nuw nsw i64 %12, 1
  %16 = load i32, i32* %3, align 4, !tbaa !5
  %17 = sext i32 %16 to i64
  %18 = icmp slt i64 %15, %17
  br i1 %18, label %11, label %19, !llvm.loop !9

19:                                               ; preds = %11, %0
  %20 = call nonnull align 8 dereferenceable(16) %"class.std::basic_istream"* @_ZNSirsERi(%"class.std::basic_istream"* nonnull align 8 dereferenceable(16) @_ZSt3cin, i32* nonnull align 4 dereferenceable(4) %4)
  %21 = load i32, i32* %3, align 4, !tbaa !5
  %22 = load i32, i32* %4, align 4
  %23 = add i32 %21, -1
  %24 = icmp sgt i32 %23, 0
  br i1 %24, label %25, label %117

25:                                               ; preds = %19, %111
  %26 = phi i32 [ %115, %111 ], [ %23, %19 ]
  %27 = phi i32 [ %113, %111 ], [ 0, %19 ]
  %28 = phi i32 [ %112, %111 ], [ 0, %19 ]
  %29 = sext i32 %28 to i64
  %30 = getelementptr inbounds [100000 x i32], [100000 x i32]* %2, i64 0, i64 %29
  %31 = load i32, i32* %30, align 4, !tbaa !5
  %32 = icmp eq i32 %31, %22
  br i1 %32, label %33, label %109

33:                                               ; preds = %25
  %34 = icmp slt i32 %28, %26
  br i1 %34, label %35, label %107

35:                                               ; preds = %33
  %36 = sext i32 %26 to i64
  %37 = sub nsw i64 %36, %29
  %38 = icmp ult i64 %37, 8
  br i1 %38, label %98, label %39

39:                                               ; preds = %35
  %40 = and i64 %37, -8
  %41 = add nsw i64 %40, %29
  %42 = add nsw i64 %40, -8
  %43 = lshr exact i64 %42, 3
  %44 = add nuw nsw i64 %43, 1
  %45 = and i64 %44, 1
  %46 = icmp eq i64 %42, 0
  br i1 %46, label %80, label %47

47:                                               ; preds = %39
  %48 = and i64 %44, 4611686018427387902
  br label %49

49:                                               ; preds = %49, %47
  %50 = phi i64 [ 0, %47 ], [ %77, %49 ]
  %51 = phi i64 [ %48, %47 ], [ %78, %49 ]
  %52 = add i64 %50, %29
  %53 = add nsw i64 %52, 1
  %54 = getelementptr inbounds [100000 x i32], [100000 x i32]* %2, i64 0, i64 %53
  %55 = bitcast i32* %54 to <4 x i32>*
  %56 = load <4 x i32>, <4 x i32>* %55, align 4, !tbaa !5
  %57 = getelementptr inbounds i32, i32* %54, i64 4
  %58 = bitcast i32* %57 to <4 x i32>*
  %59 = load <4 x i32>, <4 x i32>* %58, align 4, !tbaa !5
  %60 = getelementptr inbounds [100000 x i32], [100000 x i32]* %2, i64 0, i64 %52
  %61 = bitcast i32* %60 to <4 x i32>*
  store <4 x i32> %56, <4 x i32>* %61, align 4, !tbaa !5
  %62 = getelementptr inbounds i32, i32* %60, i64 4
  %63 = bitcast i32* %62 to <4 x i32>*
  store <4 x i32> %59, <4 x i32>* %63, align 4, !tbaa !5
  %64 = or i64 %50, 8
  %65 = add i64 %64, %29
  %66 = add nsw i64 %65, 1
  %67 = getelementptr inbounds [100000 x i32], [100000 x i32]* %2, i64 0, i64 %66
  %68 = bitcast i32* %67 to <4 x i32>*
  %69 = load <4 x i32>, <4 x i32>* %68, align 4, !tbaa !5
  %70 = getelementptr inbounds i32, i32* %67, i64 4
  %71 = bitcast i32* %70 to <4 x i32>*
  %72 = load <4 x i32>, <4 x i32>* %71, align 4, !tbaa !5
  %73 = getelementptr inbounds [100000 x i32], [100000 x i32]* %2, i64 0, i64 %65
  %74 = bitcast i32* %73 to <4 x i32>*
  store <4 x i32> %69, <4 x i32>* %74, align 4, !tbaa !5
  %75 = getelementptr inbounds i32, i32* %73, i64 4
  %76 = bitcast i32* %75 to <4 x i32>*
  store <4 x i32> %72, <4 x i32>* %76, align 4, !tbaa !5
  %77 = add nuw i64 %50, 16
  %78 = add i64 %51, -2
  %79 = icmp eq i64 %78, 0
  br i1 %79, label %80, label %49, !llvm.loop !11

80:                                               ; preds = %49, %39
  %81 = phi i64 [ 0, %39 ], [ %77, %49 ]
  %82 = icmp eq i64 %45, 0
  br i1 %82, label %96, label %83

83:                                               ; preds = %80
  %84 = add i64 %81, %29
  %85 = add nsw i64 %84, 1
  %86 = getelementptr inbounds [100000 x i32], [100000 x i32]* %2, i64 0, i64 %85
  %87 = bitcast i32* %86 to <4 x i32>*
  %88 = load <4 x i32>, <4 x i32>* %87, align 4, !tbaa !5
  %89 = getelementptr inbounds i32, i32* %86, i64 4
  %90 = bitcast i32* %89 to <4 x i32>*
  %91 = load <4 x i32>, <4 x i32>* %90, align 4, !tbaa !5
  %92 = getelementptr inbounds [100000 x i32], [100000 x i32]* %2, i64 0, i64 %84
  %93 = bitcast i32* %92 to <4 x i32>*
  store <4 x i32> %88, <4 x i32>* %93, align 4, !tbaa !5
  %94 = getelementptr inbounds i32, i32* %92, i64 4
  %95 = bitcast i32* %94 to <4 x i32>*
  store <4 x i32> %91, <4 x i32>* %95, align 4, !tbaa !5
  br label %96

96:                                               ; preds = %80, %83
  %97 = icmp eq i64 %37, %40
  br i1 %97, label %107, label %98

98:                                               ; preds = %35, %96
  %99 = phi i64 [ %29, %35 ], [ %41, %96 ]
  br label %100

100:                                              ; preds = %98, %100
  %101 = phi i64 [ %102, %100 ], [ %99, %98 ]
  %102 = add nsw i64 %101, 1
  %103 = getelementptr inbounds [100000 x i32], [100000 x i32]* %2, i64 0, i64 %102
  %104 = load i32, i32* %103, align 4, !tbaa !5
  %105 = getelementptr inbounds [100000 x i32], [100000 x i32]* %2, i64 0, i64 %101
  store i32 %104, i32* %105, align 4, !tbaa !5
  %106 = icmp eq i64 %102, %36
  br i1 %106, label %107, label %100, !llvm.loop !13

107:                                              ; preds = %100, %96, %33
  %108 = add nsw i32 %27, 1
  br label %111

109:                                              ; preds = %25
  %110 = add nsw i32 %28, 1
  br label %111

111:                                              ; preds = %109, %107
  %112 = phi i32 [ %28, %107 ], [ %110, %109 ]
  %113 = phi i32 [ %108, %107 ], [ %27, %109 ]
  %114 = xor i32 %113, -1
  %115 = add i32 %21, %114
  %116 = icmp slt i32 %112, %115
  br i1 %116, label %25, label %117, !llvm.loop !15

117:                                              ; preds = %111, %19
  %118 = phi i32 [ 0, %19 ], [ %113, %111 ]
  %119 = phi i32 [ %23, %19 ], [ %115, %111 ]
  %120 = sext i32 %119 to i64
  %121 = getelementptr inbounds [100000 x i32], [100000 x i32]* %2, i64 0, i64 %120
  %122 = load i32, i32* %121, align 4, !tbaa !5
  %123 = icmp eq i32 %122, %22
  %124 = sext i1 %123 to i32
  %125 = getelementptr inbounds [100000 x i32], [100000 x i32]* %2, i64 0, i64 0
  %126 = load i32, i32* %125, align 16, !tbaa !5
  %127 = call nonnull align 8 dereferenceable(8) %"class.std::basic_ostream"* @_ZNSolsEi(%"class.std::basic_ostream"* nonnull align 8 dereferenceable(8) @_ZSt4cout, i32 %126)
  %128 = sub i32 %124, %118
  %129 = load i32, i32* %3, align 4, !tbaa !5
  %130 = add i32 %128, %129
  %131 = icmp sgt i32 %130, 1
  br i1 %131, label %132, label %143

132:                                              ; preds = %117, %132
  %133 = phi i64 [ %138, %132 ], [ 1, %117 ]
  call void @llvm.lifetime.start.p0i8(i64 1, i8* nonnull %1)
  store i8 32, i8* %1, align 1, !tbaa !16
  %134 = call nonnull align 8 dereferenceable(8) %"class.std::basic_ostream"* @_ZSt16__ostream_insertIcSt11char_traitsIcEERSt13basic_ostreamIT_T0_ES6_PKS3_l(%"class.std::basic_ostream"* nonnull align 8 dereferenceable(8) @_ZSt4cout, i8* nonnull %1, i64 1)
  call void @llvm.lifetime.end.p0i8(i64 1, i8* nonnull %1)
  %135 = getelementptr inbounds [100000 x i32], [100000 x i32]* %2, i64 0, i64 %133
  %136 = load i32, i32* %135, align 4, !tbaa !5
  %137 = call nonnull align 8 dereferenceable(8) %"class.std::basic_ostream"* @_ZNSolsEi(%"class.std::basic_ostream"* nonnull align 8 dereferenceable(8) %134, i32 %136)
  %138 = add nuw nsw i64 %133, 1
  %139 = load i32, i32* %3, align 4, !tbaa !5
  %140 = add i32 %128, %139
  %141 = sext i32 %140 to i64
  %142 = icmp slt i64 %138, %141
  br i1 %142, label %132, label %143, !llvm.loop !17

143:                                              ; preds = %132, %117
  call void @llvm.lifetime.end.p0i8(i64 4, i8* nonnull %7) #6
  call void @llvm.lifetime.end.p0i8(i64 4, i8* nonnull %6) #6
  call void @llvm.lifetime.end.p0i8(i64 400000, i8* nonnull %5) #6
  ret i32 0
}

; Function Attrs: argmemonly mustprogress nofree nosync nounwind willreturn
declare void @llvm.lifetime.start.p0i8(i64 immarg, i8* nocapture) #4

declare nonnull align 8 dereferenceable(16) %"class.std::basic_istream"* @_ZNSirsERi(%"class.std::basic_istream"* nonnull align 8 dereferenceable(16), i32* nonnull align 4 dereferenceable(4)) local_unnamed_addr #0

declare nonnull align 8 dereferenceable(8) %"class.std::basic_ostream"* @_ZNSolsEi(%"class.std::basic_ostream"* nonnull align 8 dereferenceable(8), i32) local_unnamed_addr #0

; Function Attrs: argmemonly mustprogress nofree nosync nounwind willreturn
declare void @llvm.lifetime.end.p0i8(i64 immarg, i8* nocapture) #4

declare nonnull align 8 dereferenceable(8) %"class.std::basic_ostream"* @_ZSt16__ostream_insertIcSt11char_traitsIcEERSt13basic_ostreamIT_T0_ES6_PKS3_l(%"class.std::basic_ostream"* nonnull align 8 dereferenceable(8), i8*, i64) local_unnamed_addr #0

; Function Attrs: sspstrong uwtable
define internal void @_GLOBAL__sub_I_1469.cpp() #5 section ".text.startup" {
  tail call void @_ZNSt8ios_base4InitC1Ev(%"class.std::ios_base::Init"* nonnull align 1 dereferenceable(1) @_ZStL8__ioinit)
  %1 = tail call i32 @__cxa_atexit(void (i8*)* bitcast (void (%"class.std::ios_base::Init"*)* @_ZNSt8ios_base4InitD1Ev to void (i8*)*), i8* getelementptr inbounds (%"class.std::ios_base::Init", %"class.std::ios_base::Init"* @_ZStL8__ioinit, i64 0, i32 0), i8* nonnull @__dso_handle) #6
  ret void
}


!llvm.module.flags = !{!0, !1, !2, !3}
!llvm.ident = !{!4}

!0 = !{i32 1, !"wchar_size", i32 4}
!1 = !{i32 7, !"PIC Level", i32 2}
!2 = !{i32 7, !"PIE Level", i32 2}
!3 = !{i32 7, !"uwtable", i32 1}
!4 = !{!"clang version 13.0.0"}
!5 = !{!6, !6, i64 0}
!6 = !{!"int", !7, i64 0}
!7 = !{!"omnipotent char", !8, i64 0}
!8 = !{!"Simple C++ TBAA"}
!9 = distinct !{!9, !10}
!10 = !{!"llvm.loop.mustprogress"}
!11 = distinct !{!11, !10, !12}
!12 = !{!"llvm.loop.isvectorized", i32 1}
!13 = distinct !{!13, !10, !14, !12}
!14 = !{!"llvm.loop.unroll.runtime.disable"}
!15 = distinct !{!15, !10}
!16 = !{!7, !7, i64 0}
!17 = distinct !{!17, !10}
